target datalayout = "e-m:e-p270:32:32-p271:32:32-p272:64:64-i64:64-i128:128-f80:128-n8:16:32:64-S128"
target triple = "x86_64-pc-linux-gnu"

%struct.RelationData = type { %struct.RelFileLocator, ptr, i32, i32, i8, i8, i8, i8, i8, i32, i32, i32, i32, ptr, ptr, i32, %struct.LockInfoData, ptr, ptr, ptr, ptr, ptr, i8, ptr, ptr, ptr, ptr, ptr, ptr, i32, ptr, i8, ptr, ptr, i32, i8, i32, ptr, i8, ptr, ptr, ptr, ptr, ptr, ptr, ptr, i32, ptr, ptr, ptr, ptr, ptr, ptr, ptr, ptr, ptr, ptr, ptr, ptr, ptr, ptr, ptr, ptr, ptr, ptr, ptr, i32, i8, ptr }
%struct.RelFileLocator = type { i32, i32, i32 }
%struct.LockInfoData = type { %struct.LockRelId }
%struct.LockRelId = type { i32, i32 }
%struct.FormData_pg_class = type { i32, %struct.nameData, i32, i32, i32, i32, i32, i32, i32, i32, float, i32, i32, i8, i8, i8, i8, i16, i16, i8, i8, i8, i8, i8, i8, i8, i8, i32, i32, i32 }
%struct.nameData = type { [64 x i8] }
%struct.IndexInfo = type { i32, i32, i32, [32 x i16], ptr, ptr, ptr, ptr, ptr, ptr, ptr, ptr, ptr, ptr, i8, i8, i8, i8, i8, i8, i8, i8, i8, i32, i32, ptr, ptr }
%struct.IndexVacuumInfo = type { ptr, ptr, i8, i8, i8, i32, double, ptr }
%struct.ValidateIndexState = type { ptr, double, double, double }
%struct.TableAmRoutine = type { i32, ptr, ptr, ptr, ptr, ptr, ptr, ptr, ptr, ptr, ptr, ptr, ptr, ptr, ptr, ptr, ptr, ptr, ptr, ptr, ptr, ptr, ptr, ptr, ptr, ptr, ptr, ptr, ptr, ptr, ptr, ptr, ptr, ptr, ptr, ptr, ptr, ptr, ptr, ptr, ptr, ptr, ptr, ptr, ptr, ptr }

@.str.1 = private unnamed_addr constant [8 x i8] c"index.c\00", align 1
@__const.validate_index.progress_index = private unnamed_addr constant [5 x i32] [i32 9, i32 12, i32 11, i32 16, i32 15], align 16
@maintenance_work_mem = external global i32, align 4
@__const.validate_index.progress_index.36 = private unnamed_addr constant [3 x i32] [i32 9, i32 16, i32 15], align 4
@__const.validate_index.progress_vals = private unnamed_addr constant [3 x i64] [i64 5, i64 0, i64 0], align 16
@.str.37 = private unnamed_addr constant [87 x i8] c"validate_index found %.0f heap tuples, %.0f index tuples; inserted %.0f missing tuples\00", align 1
@__func__.validate_index = private unnamed_addr constant [15 x i8] c"validate_index\00", align 1

; Function Attrs: inlinehint nounwind uwtable
define internal void @table_index_validate_scan(ptr noundef %0, ptr noundef %1, ptr noundef %2, ptr noundef %3, ptr noundef %4) #4 {
  %6 = alloca ptr, align 8
  %7 = alloca ptr, align 8
  %8 = alloca ptr, align 8
  %9 = alloca ptr, align 8
  %10 = alloca ptr, align 8
  store ptr %0, ptr %6, align 8
  store ptr %1, ptr %7, align 8
  store ptr %2, ptr %8, align 8
  store ptr %3, ptr %9, align 8
  store ptr %4, ptr %10, align 8
  %11 = load ptr, ptr %6, align 8
  %12 = getelementptr inbounds nuw %struct.RelationData, ptr %11, i32 0, i32 47
  %13 = load ptr, ptr %12, align 8
  %14 = getelementptr inbounds nuw %struct.TableAmRoutine, ptr %13, i32 0, i32 36
  %15 = load ptr, ptr %14, align 8
  %16 = load ptr, ptr %6, align 8
  %17 = load ptr, ptr %7, align 8
  %18 = load ptr, ptr %8, align 8
  %19 = load ptr, ptr %9, align 8
  %20 = load ptr, ptr %10, align 8
  call void %15(ptr noundef %16, ptr noundef %17, ptr noundef %18, ptr noundef %19, ptr noundef %20)
  ret void
}

; Function Attrs: nounwind uwtable
define dso_local void @validate_index(i32 noundef %0, i32 noundef %1, ptr noundef %2) #0 {
  %4 = alloca i32, align 4
  %5 = alloca i32, align 4
  %6 = alloca ptr, align 8
  %7 = alloca ptr, align 8
  %8 = alloca ptr, align 8
  %9 = alloca ptr, align 8
  %10 = alloca %struct.IndexVacuumInfo, align 8
  %11 = alloca %struct.ValidateIndexState, align 8
  %12 = alloca i32, align 4
  %13 = alloca i32, align 4
  %14 = alloca i32, align 4
  %15 = alloca [5 x i32], align 16
  %16 = alloca [5 x i64], align 16
  %17 = alloca [3 x i32], align 4
  %18 = alloca [3 x i64], align 16
  store i32 %0, ptr %4, align 4
  store i32 %1, ptr %5, align 4
  store ptr %2, ptr %6, align 8
  call void @llvm.lifetime.start.p0(i64 8, ptr %7) #8
  call void @llvm.lifetime.start.p0(i64 8, ptr %8) #8
  call void @llvm.lifetime.start.p0(i64 8, ptr %9) #8
  call void @llvm.lifetime.start.p0(i64 40, ptr %10) #8
  call void @llvm.lifetime.start.p0(i64 32, ptr %11) #8
  call void @llvm.lifetime.start.p0(i64 4, ptr %12) #8
  call void @llvm.lifetime.start.p0(i64 4, ptr %13) #8
  call void @llvm.lifetime.start.p0(i64 4, ptr %14) #8
  call void @llvm.lifetime.start.p0(i64 20, ptr %15) #8
  call void @llvm.memcpy.p0.p0.i64(ptr align 16 %15, ptr align 16 @__const.validate_index.progress_index, i64 20, i1 false)
  call void @llvm.lifetime.start.p0(i64 40, ptr %16) #8
  call void @llvm.memset.p0.i64(ptr align 16 %16, i8 0, i64 40, i1 false)
  %19 = getelementptr inbounds [5 x i64], ptr %16, i32 0, i32 0
  store i64 4, ptr %19, align 16
  %20 = getelementptr inbounds [5 x i32], ptr %15, i64 0, i64 0
  %21 = getelementptr inbounds [5 x i64], ptr %16, i64 0, i64 0
  call void @pgstat_progress_update_multi_param(i32 noundef 5, ptr noundef %20, ptr noundef %21)
  call void @llvm.lifetime.end.p0(i64 40, ptr %16) #8
  call void @llvm.lifetime.end.p0(i64 20, ptr %15) #8
  %22 = load i32, ptr %4, align 4
  %23 = call ptr @table_open(i32 noundef %22, i32 noundef 4)
  store ptr %23, ptr %7, align 8
  call void @GetUserIdAndSecContext(ptr noundef %12, ptr noundef %13)
  %24 = load ptr, ptr %7, align 8
  %25 = getelementptr inbounds nuw %struct.RelationData, ptr %24, i32 0, i32 13
  %26 = load ptr, ptr %25, align 8
  %27 = getelementptr inbounds nuw %struct.FormData_pg_class, ptr %26, i32 0, i32 5
  %28 = load i32, ptr %27, align 4
  %29 = load i32, ptr %13, align 4
  %30 = or i32 %29, 2
  call void @SetUserIdAndSecContext(i32 noundef %28, i32 noundef %30)
  %31 = call i32 @NewGUCNestLevel()
  store i32 %31, ptr %14, align 4
  call void @RestrictSearchPath()
  %32 = load i32, ptr %5, align 4
  %33 = call ptr @index_open(i32 noundef %32, i32 noundef 3)
  store ptr %33, ptr %8, align 8
  %34 = load ptr, ptr %8, align 8
  %35 = call ptr @BuildIndexInfo(ptr noundef %34)
  store ptr %35, ptr %9, align 8
  %36 = load ptr, ptr %9, align 8
  %37 = getelementptr inbounds nuw %struct.IndexInfo, ptr %36, i32 0, i32 19
  store i8 1, ptr %37, align 1
  %38 = load ptr, ptr %8, align 8
  %39 = getelementptr inbounds nuw %struct.IndexVacuumInfo, ptr %10, i32 0, i32 0
  store ptr %38, ptr %39, align 8
  %40 = load ptr, ptr %7, align 8
  %41 = getelementptr inbounds nuw %struct.IndexVacuumInfo, ptr %10, i32 0, i32 1
  store ptr %40, ptr %41, align 8
  %42 = getelementptr inbounds nuw %struct.IndexVacuumInfo, ptr %10, i32 0, i32 2
  store i8 0, ptr %42, align 8
  %43 = getelementptr inbounds nuw %struct.IndexVacuumInfo, ptr %10, i32 0, i32 3
  store i8 1, ptr %43, align 1
  %44 = getelementptr inbounds nuw %struct.IndexVacuumInfo, ptr %10, i32 0, i32 4
  store i8 1, ptr %44, align 2
  %45 = getelementptr inbounds nuw %struct.IndexVacuumInfo, ptr %10, i32 0, i32 5
  store i32 13, ptr %45, align 4
  %46 = load ptr, ptr %7, align 8
  %47 = getelementptr inbounds nuw %struct.RelationData, ptr %46, i32 0, i32 13
  %48 = load ptr, ptr %47, align 8
  %49 = getelementptr inbounds nuw %struct.FormData_pg_class, ptr %48, i32 0, i32 10
  %50 = load float, ptr %49, align 4
  %51 = fpext float %50 to double
  %52 = getelementptr inbounds nuw %struct.IndexVacuumInfo, ptr %10, i32 0, i32 6
  store double %51, ptr %52, align 8
  %53 = getelementptr inbounds nuw %struct.IndexVacuumInfo, ptr %10, i32 0, i32 7
  store ptr null, ptr %53, align 8
  %54 = load i32, ptr @maintenance_work_mem, align 4
  %55 = call ptr @tuplesort_begin_datum(i32 noundef 20, i32 noundef 412, i32 noundef 0, i1 noundef zeroext false, i32 noundef %54, ptr noundef null, i32 noundef 0)
  %56 = getelementptr inbounds nuw %struct.ValidateIndexState, ptr %11, i32 0, i32 0
  store ptr %55, ptr %56, align 8
  %57 = getelementptr inbounds nuw %struct.ValidateIndexState, ptr %11, i32 0, i32 3
  store double 0.000000e+00, ptr %57, align 8
  %58 = getelementptr inbounds nuw %struct.ValidateIndexState, ptr %11, i32 0, i32 2
  store double 0.000000e+00, ptr %58, align 8
  %59 = getelementptr inbounds nuw %struct.ValidateIndexState, ptr %11, i32 0, i32 1
  store double 0.000000e+00, ptr %59, align 8
  %60 = call ptr @index_bulk_delete(ptr noundef %10, ptr noundef null, ptr noundef @validate_index_callback, ptr noundef %11)
  call void @llvm.lifetime.start.p0(i64 12, ptr %17) #8
  call void @llvm.memcpy.p0.p0.i64(ptr align 4 %17, ptr align 4 @__const.validate_index.progress_index.36, i64 12, i1 false)
  call void @llvm.lifetime.start.p0(i64 24, ptr %18) #8
  call void @llvm.memcpy.p0.p0.i64(ptr align 16 %18, ptr align 16 @__const.validate_index.progress_vals, i64 24, i1 false)
  %61 = getelementptr inbounds [3 x i32], ptr %17, i64 0, i64 0
  %62 = getelementptr inbounds [3 x i64], ptr %18, i64 0, i64 0
  call void @pgstat_progress_update_multi_param(i32 noundef 3, ptr noundef %61, ptr noundef %62)
  call void @llvm.lifetime.end.p0(i64 24, ptr %18) #8
  call void @llvm.lifetime.end.p0(i64 12, ptr %17) #8
  %63 = getelementptr inbounds nuw %struct.ValidateIndexState, ptr %11, i32 0, i32 0
  %64 = load ptr, ptr %63, align 8
  call void @tuplesort_performsort(ptr noundef %64)
  call void @pgstat_progress_update_param(i32 noundef 9, i64 noundef 6)
  %65 = load ptr, ptr %7, align 8
  %66 = load ptr, ptr %8, align 8
  %67 = load ptr, ptr %9, align 8
  %68 = load ptr, ptr %6, align 8
  call void @table_index_validate_scan(ptr noundef %65, ptr noundef %66, ptr noundef %67, ptr noundef %68, ptr noundef %11)
  %69 = getelementptr inbounds nuw %struct.ValidateIndexState, ptr %11, i32 0, i32 0
  %70 = load ptr, ptr %69, align 8
  call void @tuplesort_end(ptr noundef %70)
  %71 = load ptr, ptr %8, align 8
  %72 = load ptr, ptr %9, align 8
  call void @index_insert_cleanup(ptr noundef %71, ptr noundef %72)
  br label %73

73:                                               ; preds = %3
  br i1 false, label %74, label %76

74:                                               ; preds = %73
  %75 = call zeroext i1 @errstart_cold(i32 noundef 13, ptr noundef null) #9
  br i1 %75, label %78, label %86

76:                                               ; preds = %73
  %77 = call zeroext i1 @errstart(i32 noundef 13, ptr noundef null)
  br i1 %77, label %78, label %86

78:                                               ; preds = %76, %74
  %79 = getelementptr inbounds nuw %struct.ValidateIndexState, ptr %11, i32 0, i32 1
  %80 = load double, ptr %79, align 8
  %81 = getelementptr inbounds nuw %struct.ValidateIndexState, ptr %11, i32 0, i32 2
  %82 = load double, ptr %81, align 8
  %83 = getelementptr inbounds nuw %struct.ValidateIndexState, ptr %11, i32 0, i32 3
  %84 = load double, ptr %83, align 8
  %85 = call i32 (ptr, ...) @errmsg_internal(ptr noundef @.str.37, double noundef %80, double noundef %82, double noundef %84)
  call void @errfinish(ptr noundef @.str.1, i32 noundef 3439, ptr noundef @__func__.validate_index)
  br label %86

86:                                               ; preds = %78, %76, %74
  br label %87

87:                                               ; preds = %86
  br label %88

88:                                               ; preds = %87
  %89 = load i32, ptr %14, align 4
  call void @AtEOXact_GUC(i1 noundef zeroext false, i32 noundef %89)
  %90 = load i32, ptr %12, align 4
  %91 = load i32, ptr %13, align 4
  call void @SetUserIdAndSecContext(i32 noundef %90, i32 noundef %91)
  %92 = load ptr, ptr %8, align 8
  call void @index_close(ptr noundef %92, i32 noundef 0)
  %93 = load ptr, ptr %7, align 8
  call void @table_close(ptr noundef %93, i32 noundef 0)
  call void @llvm.lifetime.end.p0(i64 4, ptr %14) #8
  call void @llvm.lifetime.end.p0(i64 4, ptr %13) #8
  call void @llvm.lifetime.end.p0(i64 4, ptr %12) #8
  call void @llvm.lifetime.end.p0(i64 32, ptr %11) #8
  call void @llvm.lifetime.end.p0(i64 40, ptr %10) #8
  call void @llvm.lifetime.end.p0(i64 8, ptr %9) #8
  call void @llvm.lifetime.end.p0(i64 8, ptr %8) #8
  call void @llvm.lifetime.end.p0(i64 8, ptr %7) #8
  ret void
}