; Function Attrs: nounwind uwtable
define dso_local void @validate_index(i32 noundef %0, i32 noundef %1, ptr noundef %2) local_unnamed_addr #0 {
  %4 = alloca %struct.IndexVacuumInfo, align 8
  %5 = alloca %struct.ValidateIndexState, align 8
  %6 = alloca i32, align 4
  %7 = alloca i32, align 4
  %8 = alloca [5 x i32], align 16
  %9 = alloca [5 x i64], align 16
  %10 = alloca [3 x i32], align 4
  %11 = alloca [3 x i64], align 16
  call void @llvm.lifetime.start.p0(i64 40, ptr nonnull %4) #11
  call void @llvm.lifetime.start.p0(i64 32, ptr nonnull %5) #11
  call void @llvm.lifetime.start.p0(i64 4, ptr nonnull %6) #11
  call void @llvm.lifetime.start.p0(i64 4, ptr nonnull %7) #11
  call void @llvm.lifetime.start.p0(i64 20, ptr nonnull %8) #11
  call void @llvm.memcpy.p0.p0.i64(ptr noundef nonnull align 16 dereferenceable(20) %8, ptr noundef nonnull align 16 dereferenceable(20) @__const.validate_index.progress_index, i64 20, i1 false)
  call void @llvm.lifetime.start.p0(i64 40, ptr nonnull %9) #11
  call void @llvm.memset.p0.i64(ptr noundef nonnull align 16 dereferenceable(40) %9, i8 0, i64 40, i1 false)
  store i64 4, ptr %9, align 16
  call void @pgstat_progress_update_multi_param(i32 noundef 5, ptr noundef nonnull %8, ptr noundef nonnull %9) #11
  call void @llvm.lifetime.end.p0(i64 40, ptr nonnull %9) #11
  call void @llvm.lifetime.end.p0(i64 20, ptr nonnull %8) #11
  %12 = call ptr @table_open(i32 noundef %0, i32 noundef 4) #11
  call void @GetUserIdAndSecContext(ptr noundef nonnull %6, ptr noundef nonnull %7) #11
  %13 = getelementptr inbounds nuw i8, ptr %12, i64 56
  %14 = load ptr, ptr %13, align 8
  %15 = getelementptr inbounds nuw i8, ptr %14, i64 80
  %16 = load i32, ptr %15, align 4
  %17 = load i32, ptr %7, align 4
  %18 = or i32 %17, 2
  call void @SetUserIdAndSecContext(i32 noundef %16, i32 noundef %18) #11
  %19 = call i32 @NewGUCNestLevel() #11
  call void @RestrictSearchPath() #11
  %20 = call ptr @index_open(i32 noundef %1, i32 noundef 3) #11
  %21 = call ptr @BuildIndexInfo(ptr noundef %20)
  %22 = getelementptr inbounds nuw i8, ptr %21, i64 165
  store i8 1, ptr %22, align 1
  store ptr %20, ptr %4, align 8
  %23 = getelementptr inbounds nuw i8, ptr %4, i64 8
  store ptr %12, ptr %23, align 8
  %24 = getelementptr inbounds nuw i8, ptr %4, i64 16
  store i8 0, ptr %24, align 8
  %25 = getelementptr inbounds nuw i8, ptr %4, i64 17
  store i8 1, ptr %25, align 1
  %26 = getelementptr inbounds nuw i8, ptr %4, i64 18
  store i8 1, ptr %26, align 2
  %27 = getelementptr inbounds nuw i8, ptr %4, i64 20
  store i32 13, ptr %27, align 4
  %28 = load ptr, ptr %13, align 8
  %29 = getelementptr inbounds nuw i8, ptr %28, i64 100
  %30 = load float, ptr %29, align 4
  %31 = fpext float %30 to double
  %32 = getelementptr inbounds nuw i8, ptr %4, i64 24
  store double %31, ptr %32, align 8
  %33 = getelementptr inbounds nuw i8, ptr %4, i64 32
  store ptr null, ptr %33, align 8
  %34 = load i32, ptr @maintenance_work_mem, align 4
  %35 = call ptr @tuplesort_begin_datum(i32 noundef 20, i32 noundef 412, i32 noundef 0, i1 noundef zeroext false, i32 noundef %34, ptr noundef null, i32 noundef 0) #11
  store ptr %35, ptr %5, align 8
  %36 = getelementptr inbounds nuw i8, ptr %5, i64 8
  call void @llvm.memset.p0.i64(ptr noundef nonnull align 8 dereferenceable(24) %36, i8 0, i64 24, i1 false)
  %37 = call ptr @index_bulk_delete(ptr noundef nonnull %4, ptr noundef null, ptr noundef nonnull @validate_index_callback, ptr noundef nonnull %5) #11
  call void @llvm.lifetime.start.p0(i64 12, ptr nonnull %10) #11
  call void @llvm.memcpy.p0.p0.i64(ptr noundef nonnull align 4 dereferenceable(12) %10, ptr noundef nonnull align 4 dereferenceable(12) @__const.validate_index.progress_index.36, i64 12, i1 false)
  call void @llvm.lifetime.start.p0(i64 24, ptr nonnull %11) #11
  call void @llvm.memcpy.p0.p0.i64(ptr noundef nonnull align 16 dereferenceable(24) %11, ptr noundef nonnull align 16 dereferenceable(24) @__const.validate_index.progress_vals, i64 24, i1 false)
  call void @pgstat_progress_update_multi_param(i32 noundef 3, ptr noundef nonnull %10, ptr noundef nonnull %11) #11
  call void @llvm.lifetime.end.p0(i64 24, ptr nonnull %11) #11
  call void @llvm.lifetime.end.p0(i64 12, ptr nonnull %10) #11
  %38 = load ptr, ptr %5, align 8
  call void @tuplesort_performsort(ptr noundef %38) #11
  call void @pgstat_progress_update_param(i32 noundef 9, i64 noundef 6) #11
  %39 = getelementptr inbounds nuw i8, ptr %12, i64 320
  %40 = load ptr, ptr %39, align 8
  %41 = getelementptr inbounds nuw i8, ptr %40, i64 288
  %42 = load ptr, ptr %41, align 8
  call void %42(ptr noundef %12, ptr noundef %20, ptr noundef %21, ptr noundef %2, ptr noundef nonnull %5) #11
  %43 = load ptr, ptr %5, align 8
  call void @tuplesort_end(ptr noundef %43) #11
  call void @index_insert_cleanup(ptr noundef %20, ptr noundef %21) #11
  %44 = call zeroext i1 @errstart(i32 noundef 13, ptr noundef null) #11
  br i1 %44, label %45, label %52

45:                                               ; preds = %3
  %46 = getelementptr inbounds nuw i8, ptr %5, i64 16
  %47 = getelementptr inbounds nuw i8, ptr %5, i64 24
  %48 = load double, ptr %36, align 8
  %49 = load double, ptr %46, align 8
  %50 = load double, ptr %47, align 8
  %51 = call i32 (ptr, ...) @errmsg_internal(ptr noundef nonnull @.str.37, double noundef %48, double noundef %49, double noundef %50) #11
  call void @errfinish(ptr noundef nonnull @.str.1, i32 noundef 3439, ptr noundef nonnull @__func__.validate_index) #11
  br label %52

52:                                               ; preds = %45, %3
  call void @AtEOXact_GUC(i1 noundef zeroext false, i32 noundef %19) #11
  %53 = load i32, ptr %6, align 4
  %54 = load i32, ptr %7, align 4
  call void @SetUserIdAndSecContext(i32 noundef %53, i32 noundef %54) #11
  call void @index_close(ptr noundef %20, i32 noundef 0) #11
  call void @table_close(ptr noundef nonnull %12, i32 noundef 0) #11
  call void @llvm.lifetime.end.p0(i64 4, ptr nonnull %7) #11
  call void @llvm.lifetime.end.p0(i64 4, ptr nonnull %6) #11
  call void @llvm.lifetime.end.p0(i64 32, ptr nonnull %5) #11
  call void @llvm.lifetime.end.p0(i64 40, ptr nonnull %4) #11
  ret void
}